TN:
SF:/usr/include/c++/4.8/bits/locale_facets.h
FN:865,_ZNKSt5ctypeIcE5widenEc
FN:1075,_ZNKSt5ctypeIcE8do_widenEc
FN:1098,_ZNKSt5ctypeIcE8do_widenEPKcS2_Pc
FN:1124,_ZNKSt5ctypeIcE9do_narrowEcc
FN:1150,_ZNKSt5ctypeIcE9do_narrowEPKcS2_cPc
FNDA:2,_ZNKSt5ctypeIcE5widenEc
FNDA:0,_ZNKSt5ctypeIcE8do_widenEc
FNDA:0,_ZNKSt5ctypeIcE8do_widenEPKcS2_Pc
FNDA:0,_ZNKSt5ctypeIcE9do_narrowEcc
FNDA:0,_ZNKSt5ctypeIcE9do_narrowEPKcS2_cPc
FNF:5
FNH:1
DA:865,2
DA:867,2
DA:868,2
DA:869,0
DA:870,0
DA:1075,0
DA:1076,0
DA:1098,0
DA:1100,0
DA:1101,0
DA:1124,0
DA:1125,0
DA:1150,0
DA:1153,0
DA:1154,0
LF:15
LH:3
end_of_record
SF:/usr/include/c++/4.8/iostream
DA:74,1
LF:1
LH:1
end_of_record
SF:/usr/include/c++/4.8/ostream
DA:113,2
LF:1
LH:1
end_of_record
SF:/home/yq/gcov/data_test/test1.cpp
FN:4,_ZN5Point8setPointEii
FN:10,_ZN5Point10printPointEv
FN:14,_GLOBAL__sub_I__ZN5Point8setPointEii
FN:14,_Z41__static_initialization_and_destruction_0ii
FNDA:1,_ZN5Point8setPointEii
FNDA:1,_ZN5Point10printPointEv
FNDA:1,_GLOBAL__sub_I__ZN5Point8setPointEii
FNDA:1,_Z41__static_initialization_and_destruction_0ii
FNF:4
FNH:4
DA:4,1
DA:6,1
DA:7,1
DA:8,1
DA:10,1
DA:12,1
DA:13,1
DA:14,4
LF:8
LH:8
end_of_record
TN:
SF:/usr/include/c++/4.8/bits/locale_facets.h
FN:865,_ZNKSt5ctypeIcE5widenEc
FN:1075,_ZNKSt5ctypeIcE8do_widenEc
FN:1098,_ZNKSt5ctypeIcE8do_widenEPKcS2_Pc
FN:1124,_ZNKSt5ctypeIcE9do_narrowEcc
FN:1150,_ZNKSt5ctypeIcE9do_narrowEPKcS2_cPc
FNDA:2,_ZNKSt5ctypeIcE5widenEc
FNDA:0,_ZNKSt5ctypeIcE8do_widenEc
FNDA:0,_ZNKSt5ctypeIcE8do_widenEPKcS2_Pc
FNDA:0,_ZNKSt5ctypeIcE9do_narrowEcc
FNDA:0,_ZNKSt5ctypeIcE9do_narrowEPKcS2_cPc
FNF:5
FNH:1
DA:865,2
DA:867,2
DA:868,2
DA:869,0
DA:870,0
DA:1075,0
DA:1076,0
DA:1098,0
DA:1100,0
DA:1101,0
DA:1124,0
DA:1125,0
DA:1150,0
DA:1153,0
DA:1154,0
LF:15
LH:3
end_of_record
SF:/usr/include/c++/4.8/exception
DA:63,=====
LF:1
LH:0
end_of_record
SF:/usr/include/c++/4.8/iostream
DA:74,1
LF:1
LH:1
end_of_record
SF:/usr/include/c++/4.8/ostream
DA:113,2
LF:1
LH:1
end_of_record
SF:/usr/include/qt4/QtCore/qatomic_x86_64.h
DA:121,0
DA:133,6
LF:2
LH:1
end_of_record
SF:/usr/include/qt4/QtCore/qbasicatomic.h
DA:75,0
LF:1
LH:0
end_of_record
SF:/usr/include/qt4/QtCore/qbytearray.h
FN:401,_ZN10QByteArrayD2Ev
FN:435,_ZN10QByteArray6detachEv
FNDA:0,_ZN10QByteArrayD2Ev
FNDA:0,_ZN10QByteArray6detachEv
FNF:2
FNH:0
DA:401,0
DA:430,0
DA:434,0
DA:435,0
DA:436,0
LF:5
LH:0
end_of_record
SF:/usr/include/qt4/QtCore/qchar.h
DA:376,0
DA:378,0
DA:385,0
LF:3
LH:0
end_of_record
SF:/usr/include/qt4/QtCore/qcoreapplication.h
DA:118,0
LF:1
LH:0
end_of_record
SF:/usr/include/qt4/QtCore/qcoreevent.h
DA:56,0
LF:1
LH:0
end_of_record
SF:/usr/include/qt4/QtCore/qfactoryinterface.h
FN:56,_ZN17QFactoryInterfaceD0Ev
FN:56,_ZN17QFactoryInterfaceD2Ev
FNDA:0,_ZN17QFactoryInterfaceD0Ev
FNDA:0,_ZN17QFactoryInterfaceD2Ev
FNF:2
FNH:0
DA:56,0
LF:1
LH:0
end_of_record
SF:/usr/include/qt4/QtCore/qfuture.h
DA:207,0
LF:1
LH:0
end_of_record
SF:/usr/include/qt4/QtCore/qfutureinterface.h
FN:282,_ZN16QFutureInterfaceIvED0Ev
FN:282,_ZN16QFutureInterfaceIvED2Ev
FNDA:0,_ZN16QFutureInterfaceIvED0Ev
FNDA:0,_ZN16QFutureInterfaceIvED2Ev
FNF:2
FNH:0
DA:282,0
DA:305,0
LF:2
LH:0
end_of_record
SF:/usr/include/qt4/QtCore/qfuturewatcher.h
FN:62,_ZN18QFutureWatcherBaseD2Ev
FN:62,_ZN18QFutureWatcherBaseD0Ev
FN:62,_ZN14QFutureWatcherIvED2Ev
FN:199,_ZN14QFutureWatcherIvED0Ev
FN:208,_ZNK14QFutureWatcherIvE15futureInterfaceEv
FN:209,_ZN14QFutureWatcherIvE15futureInterfaceEv
FNDA:0,_ZN18QFutureWatcherBaseD0Ev
FNDA:0,_ZN18QFutureWatcherBaseD2Ev
FNDA:0,_ZN14QFutureWatcherIvED0Ev
FNDA:0,_ZN14QFutureWatcherIvED2Ev
FNDA:0,_ZNK14QFutureWatcherIvE15futureInterfaceEv
FNDA:0,_ZN14QFutureWatcherIvE15futureInterfaceEv
FNF:6
FNH:0
DA:62,0
DA:199,0
DA:200,0
DA:208,0
DA:209,0
LF:5
LH:0
end_of_record
SF:/usr/include/qt4/QtCore/qglobal.h
DA:2321,0
DA:2322,0
DA:2323,0
DA:2326,0
DA:2328,0
DA:2334,0
DA:2337,0
DA:2340,0
DA:2342,0
LF:9
LH:0
end_of_record
SF:/usr/include/qt4/QtCore/qlist.h
FN:101,_ZN5QListIS_I8QVariantEE18detach_helper_growEii
FN:101,_ZN5QListI8QVariantE18detach_helper_growEii
FN:101,_ZN5QListI8QVariantE13detach_helperEi
FN:122,_ZN5QListI8QVariantEC2ERKS1_
FN:370,_ZN5QListI8QVariantE14node_constructEPNS1_4NodeERKS0_.isra.15
FN:370,_ZN5QListIS_I8QVariantEE14node_constructEPNS2_4NodeERKS1_.isra.17
FN:393,_ZN5QListI8QVariantE9node_copyEPNS1_4NodeES3_S3_
FN:393,_ZN5QListIS_I8QVariantEE9node_copyEPNS2_4NodeES4_S4_
FN:428,_ZN5QListI8QVariantE13node_destructEPNS1_4NodeES3_.isra.8
FN:428,_ZN5QListIS_I8QVariantEE13node_destructEPNS2_4NodeES4_.isra.11
FN:507,_ZN5QListI8QVariantE6appendERKS0_
FN:507,_ZN5QListIS_I8QVariantEE6appendERKS1_
FN:729,_ZN5QListIiED2Ev
FN:729,_ZN5QListIS_I8QVariantEED2Ev
FN:729,_ZN5QListI8QVariantED2Ev
FN:755,_ZN5QListI8QVariantE4freeEPN9QListData4DataE.isra.9
FN:755,_ZN5QListIS_I8QVariantEE4freeEPN9QListData4DataE.isra.12
FNDA:0,_ZN5QListI8QVariantEC2ERKS1_
FNDA:0,_ZN5QListIS_I8QVariantEE14node_constructEPNS2_4NodeERKS1_.isra.17
FNDA:0,_ZN5QListI8QVariantE14node_constructEPNS1_4NodeERKS0_.isra.15
FNDA:0,_ZN5QListI8QVariantE9node_copyEPNS1_4NodeES3_S3_
FNDA:0,_ZN5QListIS_I8QVariantEE9node_copyEPNS2_4NodeES4_S4_
FNDA:0,_ZN5QListIS_I8QVariantEE13node_destructEPNS2_4NodeES4_.isra.11
FNDA:0,_ZN5QListI8QVariantE13node_destructEPNS1_4NodeES3_.isra.8
FNDA:0,_ZN5QListI8QVariantE6appendERKS0_
FNDA:0,_ZN5QListIS_I8QVariantEE6appendERKS1_
FNDA:0,_ZN5QListI8QVariantE18detach_helper_growEii
FNDA:0,_ZN5QListIS_I8QVariantEE18detach_helper_growEii
FNDA:0,_ZN5QListI8QVariantE13detach_helperEi
FNDA:0,_ZN5QListIiED2Ev
FNDA:0,_ZN5QListIS_I8QVariantEED2Ev
FNDA:0,_ZN5QListI8QVariantED2Ev
FNDA:0,_ZN5QListIS_I8QVariantEE4freeEPN9QListData4DataE.isra.12
FNDA:0,_ZN5QListI8QVariantE4freeEPN9QListData4DataE.isra.9
FNF:17
FNH:0
DA:98,0
DA:100,0
DA:101,0
DA:102,0
DA:121,0
DA:122,0
DA:280,0
DA:334,0
DA:370,0
DA:372,0
DA:383,0
DA:393,0
DA:395,0
DA:398,0
DA:399,0
DA:400,0
DA:401,0
DA:403,=====
DA:404,=====
DA:405,=====
DA:406,=====
DA:425,0
DA:428,0
DA:431,0
DA:434,0
DA:470,0
DA:507,0
DA:509,0
DA:510,0
DA:512,0
DA:513,=====
DA:514,=====
DA:515,=====
DA:519,0
DA:521,0
DA:522,=====
DA:523,=====
DA:524,=====
DA:538,0
DA:676,0
DA:678,0
DA:679,0
DA:681,0
DA:682,0
DA:683,=====
DA:684,=====
DA:685,=====
DA:686,=====
DA:689,0
DA:690,0
DA:691,=====
DA:692,=====
DA:693,=====
DA:694,=====
DA:695,=====
DA:696,=====
DA:699,0
DA:700,0
DA:702,0
DA:706,0
DA:708,0
DA:709,0
DA:711,0
DA:712,=====
DA:713,=====
DA:714,=====
DA:715,=====
DA:718,0
DA:719,0
DA:720,0
DA:725,0
DA:729,0
DA:731,0
DA:732,0
DA:733,0
DA:755,0
DA:757,0
DA:758,0
DA:759,0
DA:760,0
LF:80
LH:0
end_of_record
SF:/usr/include/qt4/QtCore/qmap.h
FN:185,_ZN4QMapIiN12QtConcurrent10ResultItemEED2Ev
FNDA:0,_ZN4QMapIiN12QtConcurrent10ResultItemEED2Ev
FNF:1
FNH:0
DA:185,0
DA:645,0
DA:646,0
DA:647,0
DA:648,0
DA:649,0
DA:650,0
DA:655,0
LF:8
LH:0
end_of_record
SF:/usr/include/qt4/QtCore/qpoint.h
DA:120,0
DA:126,0
LF:2
LH:0
end_of_record
SF:/usr/include/qt4/QtCore/qpointer.h
DA:59,0
DA:60,0
DA:64,0
DA:78,0
LF:4
LH:0
end_of_record
SF:/usr/include/qt4/QtCore/qrect.h
DA:301,0
DA:304,0
DA:307,0
LF:3
LH:0
end_of_record
SF:/usr/include/qt4/QtCore/qrunnable.h
FN:64,_ZN9QRunnableD2Ev
FN:64,_ZN9QRunnableD0Ev
FNDA:0,_ZN9QRunnableD0Ev
FNDA:0,_ZN9QRunnableD2Ev
FNF:2
FNH:0
DA:64,0
LF:1
LH:0
end_of_record
SF:/usr/include/qt4/QtCore/qscopedpointer.h
DA:113,17
LF:1
LH:1
end_of_record
SF:/usr/include/qt4/QtCore/qsharedpointer_impl.h
FN:193,_ZN15QtSharedPointer20ExternalRefCountDataD2Ev
FN:193,_ZN15QtSharedPointer29ExternalRefCountWithDestroyFnD2Ev
FN:193,_ZN15QtSharedPointer20ExternalRefCountDataD0Ev
FN:193,_ZN15QtSharedPointer29ExternalRefCountWithDestroyFnD0Ev
FN:198,_ZN15QtSharedPointer20ExternalRefCountData7destroyEv
FN:219,_ZN15QtSharedPointer29ExternalRefCountWithDestroyFn7destroyEv
FNDA:0,_ZN15QtSharedPointer20ExternalRefCountDataD0Ev
FNDA:0,_ZN15QtSharedPointer20ExternalRefCountDataD2Ev
FNDA:0,_ZN15QtSharedPointer20ExternalRefCountData7destroyEv
FNDA:0,_ZN15QtSharedPointer29ExternalRefCountWithDestroyFnD0Ev
FNDA:0,_ZN15QtSharedPointer29ExternalRefCountWithDestroyFnD2Ev
FNDA:0,_ZN15QtSharedPointer29ExternalRefCountWithDestroyFn7destroyEv
FNF:6
FNH:0
DA:193,0
DA:198,0
DA:210,0
DA:219,0
DA:220,0
LF:5
LH:0
end_of_record
SF:/usr/include/qt4/QtCore/qstring.h
FN:880,_ZN7QStringD2Ev
FNDA:6,_ZN7QStringD2Ev
FNF:1
FNH:1
DA:419,2
DA:697,0
DA:699,0
DA:725,0
DA:726,0
DA:879,0
DA:880,12
LF:7
LH:2
end_of_record
SF:/usr/include/qt4/QtCore/qtconcurrentexception.h
FN:65,_ZN12QtConcurrent9ExceptionD2Ev
FN:65,_ZN12QtConcurrent9ExceptionD0Ev
FN:65,_ZN12QtConcurrent18UnhandledExceptionD2Ev
FN:65,_ZN12QtConcurrent18UnhandledExceptionD0Ev
FNDA:0,_ZN12QtConcurrent9ExceptionD0Ev
FNDA:0,_ZN12QtConcurrent9ExceptionD2Ev
FNDA:0,_ZN12QtConcurrent18UnhandledExceptionD0Ev
FNDA:0,_ZN12QtConcurrent18UnhandledExceptionD2Ev
FNF:4
FNH:0
DA:65,0
DA:72,0
LF:2
LH:0
end_of_record
SF:/usr/include/qt4/QtCore/qtconcurrentresultstore.h
FN:137,_ZN12QtConcurrent15ResultStoreBaseD0Ev
FN:137,_ZN12QtConcurrent15ResultStoreBaseD2Ev
FNDA:0,_ZN12QtConcurrent15ResultStoreBaseD0Ev
FNDA:0,_ZN12QtConcurrent15ResultStoreBaseD2Ev
FNF:2
FNH:0
DA:137,0
LF:1
LH:0
end_of_record
SF:/usr/include/qt4/QtCore/qtconcurrentrunbase.h
FN:125,_ZN12QtConcurrent15RunFunctionTaskIvE3runEv
FNDA:0,_ZN12QtConcurrent15RunFunctionTaskIvE3runEv
FNF:1
FNH:0
DA:125,0
DA:127,0
DA:128,0
DA:129,0
DA:134,0
DA:136,=====
DA:137,=====
DA:138,=====
DA:139,=====
DA:142,0
LF:10
LH:0
end_of_record
SF:/usr/include/qt4/QtCore/qtconcurrentthreadengine.h
FN:114,_ZN12QtConcurrent16ThreadEngineBase5startEv
FN:115,_ZN12QtConcurrent16ThreadEngineBase6finishEv
FN:116,_ZN12QtConcurrent16ThreadEngineBase14threadFunctionEv
FN:117,_ZN12QtConcurrent16ThreadEngineBase17shouldStartThreadEv
FN:118,_ZN12QtConcurrent16ThreadEngineBase20shouldThrottleThreadEv
FN:138,_ZN12QtConcurrent12ThreadEngineIvED0Ev
FN:138,_ZN12QtConcurrent12ThreadEngineIvED1Ev
FN:143,_ZN12QtConcurrent12ThreadEngineIvE6resultEv
FN:147,_ZN12QtConcurrent12ThreadEngineIvE18asynchronousFinishEv
FNDA:0,_ZN12QtConcurrent16ThreadEngineBase5startEv
FNDA:0,_ZN12QtConcurrent16ThreadEngineBase6finishEv
FNDA:0,_ZN12QtConcurrent16ThreadEngineBase14threadFunctionEv
FNDA:0,_ZN12QtConcurrent16ThreadEngineBase17shouldStartThreadEv
FNDA:0,_ZN12QtConcurrent16ThreadEngineBase20shouldThrottleThreadEv
FNDA:0,_ZN12QtConcurrent12ThreadEngineIvED0Ev
FNDA:0,_ZN12QtConcurrent12ThreadEngineIvED1Ev
FNDA:0,_ZN12QtConcurrent12ThreadEngineIvE6resultEv
FNDA:0,_ZN12QtConcurrent12ThreadEngineIvE18asynchronousFinishEv
FNF:9
FNH:0
DA:114,0
DA:115,0
DA:116,0
DA:117,0
DA:118,0
DA:138,0
DA:143,0
DA:147,0
DA:184,0
DA:186,0
DA:187,0
DA:188,0
DA:189,0
DA:190,0
LF:14
LH:0
end_of_record
SF:/usr/include/qt4/QtGui/qcursor.h
DA:115,0
LF:1
LH:0
end_of_record
SF:/usr/include/qt4/QtGui/qevent.h
DA:74,0
DA:85,0
LF:2
LH:0
end_of_record
SF:/usr/include/qt4/QtGui/qwidget.h
DA:1021,0
LF:1
LH:0
end_of_record
SF:/usr/include/qt4/QtTest/qsignalspy.h
FN:61,_ZN10QSignalSpyD0Ev
FN:61,_ZN10QSignalSpyD2Ev
FN:100,_ZN10QSignalSpy11qt_metacallEN11QMetaObject4CallEiPPv
FNDA:0,_ZN10QSignalSpyD0Ev
FNDA:0,_ZN10QSignalSpyD2Ev
FNDA:0,_ZN10QSignalSpy11qt_metacallEN11QMetaObject4CallEiPPv
FNDA:0,_ZN10QSignalSpy10appendArgsEPPv
FNF:4
FNH:0
DA:61,0
DA:100,0
DA:102,0
DA:103,0
DA:106,0
DA:107,0
DA:108,0
DA:110,0
DA:112,0
DA:128,0
DA:131,0
DA:132,0
DA:133,0
DA:135,0
DA:136,0
LF:15
LH:0
end_of_record
SF:/usr/include/qt4/QtTest/qtest.h
FN:78,_ZN5QTest8toStringI7QStringEEPcRKT_
FNDA:0,_ZN5QTest8toStringI7QStringEEPcRKT_
FNF:1
FNH:0
DA:78,0
DA:80,0
LF:2
LH:0
end_of_record
SF:/usr/include/qt4/QtTest/qtestcase.h
FN:175,_ZN5QTest8qCompareI7QStringEEbRKT_S4_PKcS6_S6_i
FNDA:2,_ZN5QTest8qCompareI7QStringEEbRKT_S4_PKcS6_S6_i
FNF:1
FNH:1
DA:175,2
DA:178,2
DA:181,2
LF:3
LH:3
end_of_record
SF:/usr/include/qt4/QtTest/qtestevent.h
FN:67,_ZNK15QTestMouseEvent5cloneEv
FN:67,_ZNK13QTestKeyEvent5cloneEv
FN:67,_ZNK19QTestKeyClicksEvent5cloneEv
FN:67,_ZNK15QTestDelayEvent5cloneEv
FN:73,_ZN15QTestDelayEventD2Ev
FN:73,_ZN15QTestMouseEventD0Ev
FN:73,_ZN15QTestDelayEventD0Ev
FN:73,_ZN13QTestKeyEventD2Ev
FN:73,_ZN19QTestKeyClicksEventD0Ev
FN:73,_ZN10QTestEventD0Ev
FN:73,_ZN10QTestEventD2Ev
FN:73,_ZN15QTestMouseEventD2Ev
FN:73,_ZN19QTestKeyClicksEventD2Ev
FN:73,_ZN13QTestKeyEventD0Ev
FN:87,_ZN13QTestKeyEvent8simulateEP7QWidget
FN:110,_ZN19QTestKeyClicksEvent8simulateEP7QWidget
FN:129,_ZN15QTestMouseEvent8simulateEP7QWidget
FN:150,_ZN15QTestDelayEvent8simulateEP7QWidget
FNDA:0,_ZN10QTestEventD0Ev
FNDA:0,_ZN10QTestEventD2Ev
FNDA:0,_ZN13QTestKeyEventD0Ev
FNDA:0,_ZN13QTestKeyEventD2Ev
FNDA:0,_ZNK13QTestKeyEvent5cloneEv
FNDA:0,_ZN13QTestKeyEvent8simulateEP7QWidget
FNDA:0,_ZN19QTestKeyClicksEventD0Ev
FNDA:0,_ZN19QTestKeyClicksEventD2Ev
FNDA:0,_ZNK19QTestKeyClicksEvent5cloneEv
FNDA:0,_ZN19QTestKeyClicksEvent8simulateEP7QWidget
FNDA:0,_ZN15QTestMouseEventD0Ev
FNDA:0,_ZN15QTestMouseEventD2Ev
FNDA:0,_ZNK15QTestMouseEvent5cloneEv
FNDA:0,_ZN15QTestMouseEvent8simulateEP7QWidget
FNDA:0,_ZN15QTestDelayEventD0Ev
FNDA:0,_ZN15QTestDelayEventD2Ev
FNDA:0,_ZNK15QTestDelayEvent5cloneEv
FNDA:0,_ZN15QTestDelayEvent8simulateEP7QWidget
FNF:18
FNH:0
DA:67,0
DA:73,0
DA:77,0
DA:85,0
DA:87,0
DA:89,0
DA:90,0
DA:92,0
DA:93,0
DA:103,0
DA:108,0
DA:110,0
DA:112,0
DA:113,0
DA:121,0
DA:127,0
DA:129,0
DA:131,0
DA:132,0
DA:144,0
DA:148,0
DA:150,0
LF:22
LH:0
end_of_record
SF:/usr/include/qt4/QtTest/qtesteventloop.h
FN:112,_ZN14QTestEventLoop8exitLoopEv
FNDA:0,_ZN14QTestEventLoop8exitLoopEv
FNF:1
FNH:0
DA:112,0
DA:114,0
DA:115,0
DA:116,0
DA:118,0
DA:119,0
DA:121,0
DA:122,0
LF:8
LH:0
end_of_record
SF:/usr/include/qt4/QtTest/qtestkeyboard.h
FN:70,_ZN5QTestL13simulateEventEP7QWidgetbi6QFlagsIN2Qt16KeyboardModifierEE7QStringbi
FN:87,_ZN5QTestL12sendKeyEventENS_9KeyActionEP7QWidgetN2Qt3KeyE7QString6QFlagsINS3_16KeyboardModifierEEi
FN:152,_ZN5QTestL12sendKeyEventENS_9KeyActionEP7QWidgetN2Qt3KeyEc6QFlagsINS3_16KeyboardModifierEEi
FN:161,_ZN5QTestL8keyEventENS_9KeyActionEP7QWidgetc6QFlagsIN2Qt16KeyboardModifierEEi
FN:164,_ZN5QTestL8keyEventENS_9KeyActionEP7QWidgetN2Qt3KeyE6QFlagsINS3_16KeyboardModifierEEi
FN:168,_ZN5QTestL9keyClicksEP7QWidgetRK7QString6QFlagsIN2Qt16KeyboardModifierEEi
FNDA:0,_ZN5QTestL13simulateEventEP7QWidgetbi6QFlagsIN2Qt16KeyboardModifierEE7QStringbi
FNDA:0,_ZN5QTestL12sendKeyEventENS_9KeyActionEP7QWidgetN2Qt3KeyE7QString6QFlagsINS3_16KeyboardModifierEEi
FNDA:0,_ZN5QTestL12sendKeyEventENS_9KeyActionEP7QWidgetN2Qt3KeyEc6QFlagsINS3_16KeyboardModifierEEi
FNDA:0,_ZN5QTestL8keyEventENS_9KeyActionEP7QWidgetc6QFlagsIN2Qt16KeyboardModifierEEi
FNDA:0,_ZN5QTestL8keyEventENS_9KeyActionEP7QWidgetN2Qt3KeyE6QFlagsINS3_16KeyboardModifierEEi
FNDA:0,_ZN5QTestL9keyClicksEP7QWidgetRK7QString6QFlagsIN2Qt16KeyboardModifierEEi
FNF:6
FNH:0
DA:70,0
DA:73,0
DA:76,0
DA:77,0
DA:78,0
DA:79,0
DA:81,0
DA:83,0
DA:84,0
DA:85,0
DA:87,0
DA:90,0
DA:92,0
DA:93,0
DA:94,0
DA:95,0
DA:96,0
DA:98,0
DA:100,0
DA:101,0
DA:103,0
DA:105,0
DA:107,0
DA:108,0
DA:113,0
DA:114,0
DA:117,0
DA:119,0
DA:120,0
DA:121,0
DA:123,0
DA:124,0
DA:126,0
DA:128,0
DA:129,0
DA:130,0
DA:131,0
DA:132,0
DA:133,0
DA:134,0
DA:136,0
DA:137,0
DA:138,0
DA:139,0
DA:140,0
DA:142,0
DA:144,0
DA:146,0
DA:147,0
DA:152,0
DA:156,0
DA:157,0
DA:158,0
DA:159,0
DA:161,0
DA:163,0
DA:164,0
DA:166,0
DA:168,0
DA:171,0
DA:172,0
DA:173,0
LF:62
LH:0
end_of_record
SF:/usr/include/qt4/QtTest/qtestmouse.h
FN:71,_ZN5QTestL10mouseEventENS_11MouseActionEP7QWidgetN2Qt11MouseButtonE6QFlagsINS3_16KeyboardModifierEE6QPointi
FNDA:0,_ZN5QTestL10mouseEventENS_11MouseActionEP7QWidgetN2Qt11MouseButtonE6QFlagsINS3_16KeyboardModifierEE6QPointi
FNF:1
FNH:0
DA:71,0
DA:74,0
DA:77,0
DA:78,0
DA:79,0
DA:80,0
DA:82,0
DA:83,0
DA:85,0
DA:86,0
DA:87,0
DA:88,0
DA:91,0
DA:92,0
DA:96,0
DA:97,0
DA:100,0
DA:101,0
DA:103,0
DA:104,0
DA:106,0
DA:107,0
DA:109,0
DA:113,0
DA:115,0
DA:117,0
DA:120,0
DA:123,0
DA:124,0
DA:125,0
LF:30
LH:0
end_of_record
SF:/usr/include/qt4/QtTest/qtestspontaneevent.h
FN:79,_ZN17QSpontaneKeyEvent9dummyFuncEv
FN:80,_ZN17QSpontaneKeyEventD2Ev
FN:80,_ZN17QSpontaneKeyEventD0Ev
FNDA:0,_ZN17QSpontaneKeyEvent9dummyFuncEv
FNDA:0,_ZN17QSpontaneKeyEventD0Ev
FNDA:0,_ZN17QSpontaneKeyEventD2Ev
FNF:3
FNH:0
DA:77,0
DA:79,0
DA:80,0
DA:104,0
DA:105,0
LF:5
LH:0
end_of_record
SF:/usr/include/qt4/QtTest/qtestsystem.h
FN:62,_ZN5QTestL5qWaitEi
FNDA:0,_ZN5QTestL5qWaitEi
FNF:1
FNH:0
DA:62,0
DA:67,0
DA:68,0
DA:69,0
DA:70,0
DA:71,0
DA:72,0
LF:7
LH:0
end_of_record
SF:/home/yq/gcov/data_test/test2.h
FN:19,_ZN6Point211printPoint2Ev
FNDA:1,_ZN6Point211printPoint2Ev
FNF:1
FNH:1
DA:15,1
DA:16,1
DA:19,1
DA:21,1
DA:22,1
DA:23,1
LF:6
LH:6
end_of_record
SF:/home/yq/gcov/data_test/tst_ut_template_1test.cpp
FN:6,_ZN17UT_template_1TestD0Ev
FN:6,_ZN17UT_template_1TestD2Ev
FN:6,main
FN:18,_ZN17UT_template_1TestC2Ev
FN:22,_ZN17UT_template_1Test9testCase1Ev
FN:27,_ZN17UT_template_1Test6simpleEv
FNDA:0,_ZN17UT_template_1TestD0Ev
FNDA:0,_ZN17UT_template_1TestD2Ev
FNDA:0,_ZN17UT_template_1TestC2Ev
FNDA:0,_ZN17UT_template_1Test9testCase1Ev
FNDA:1,_ZN17UT_template_1Test6simpleEv
FNDA:1,main
FNF:6
FNH:2
DA:6,1
DA:18,1
DA:20,0
DA:22,0
DA:24,1
DA:27,1
DA:34,1
DA:35,1
DA:38,1
DA:42,1
DA:43,1
DA:46,2
LF:12
LH:10
end_of_record
SF:/home/yq/gcov/data_test/tst_ut_template_1test.moc
FN:42,_ZN17UT_template_1Test18qt_static_metacallEP7QObjectN11QMetaObject4CallEiPPv
FN:69,_ZNK17UT_template_1Test10metaObjectEv
FN:74,_ZN17UT_template_1Test11qt_metacastEPKc
FN:82,_ZN17UT_template_1Test11qt_metacallEN11QMetaObject4CallEiPPv
FN:93,_GLOBAL__sub_I__ZN17UT_template_1TestC2Ev
FN:93,_Z41__static_initialization_and_destruction_0ii
FNDA:2,_ZN17UT_template_1Test18qt_static_metacallEP7QObjectN11QMetaObject4CallEiPPv
FNDA:17,_ZNK17UT_template_1Test10metaObjectEv
FNDA:0,_ZN17UT_template_1Test11qt_metacastEPKc
FNDA:0,_ZN17UT_template_1Test11qt_metacallEN11QMetaObject4CallEiPPv
FNDA:1,_GLOBAL__sub_I__ZN17UT_template_1TestC2Ev
FNDA:1,_Z41__static_initialization_and_destruction_0ii
FNF:6
FNH:4
DA:42,2
DA:44,2
DA:46,2
DA:47,2
DA:49,1
DA:54,2
DA:69,17
DA:71,34
DA:74,0
DA:76,0
DA:77,0
DA:79,0
DA:82,0
DA:84,0
DA:85,0
DA:87,0
DA:88,0
DA:89,0
DA:90,0
DA:92,0
DA:93,3
LF:21
LH:9
end_of_record
